	.text
	.file	"hash_table.cpp"
	.file	0 "/root/HASH/HashTable" "hash_table.cpp" md5 0xf5a3f1122688f8a8c656052e59e38f15
	.file	1 "." "hash_table.h" md5 0xbcdf5fb6db7deea554e6715544e097fa
	.file	2 "." "list_func.h" md5 0x1637803f0857b190b681be6d25a27e06
	.file	3 "/usr/lib/llvm-14/lib/clang/14.0.0/include" "__stddef_max_align_t.h" md5 0x48e8e2456f77e6cda35d245130fa7259
	.file	4 "/usr/bin/../lib/gcc/x86_64-linux-gnu/11/../../../../include/c++/11" "cstddef"
	.file	5 "/usr/include" "stdlib.h" md5 0x02258fad21adf111bb9df9825e61954a
	.file	6 "/usr/bin/../lib/gcc/x86_64-linux-gnu/11/../../../../include/c++/11/bits" "std_abs.h"
	.file	7 "/usr/bin/../lib/gcc/x86_64-linux-gnu/11/../../../../include/c++/11" "cstdlib"
	.file	8 "/usr/lib/llvm-14/lib/clang/14.0.0/include" "stddef.h" md5 0x2499dd2361b915724b073282bea3a7bc
	.file	9 "/usr/bin/../lib/gcc/x86_64-linux-gnu/11/../../../../include/c++/11" "stdlib.h" md5 0x0f5b773a303c24013fb112082e6d18a5
	.file	10 "/usr/include/x86_64-linux-gnu/bits/types" "FILE.h" md5 0x571f9fb6223c42439075fdde11a0de5d
	.file	11 "/usr/bin/../lib/gcc/x86_64-linux-gnu/11/../../../../include/c++/11" "cstdio"
	.file	12 "/usr/include/x86_64-linux-gnu/bits/types" "__fpos_t.h" md5 0x32de8bdaf3551a6c0a9394f9af4389ce
	.file	13 "/usr/include" "stdio.h" md5 0xf31eefcc3f15835fc5a4023a625cf609
	.globl	_Z15hash_table_ctorP10hash_tablePFmPcE # -- Begin function _Z15hash_table_ctorP10hash_tablePFmPcE
	.p2align	4, 0x90
	.type	_Z15hash_table_ctorP10hash_tablePFmPcE,@function
_Z15hash_table_ctorP10hash_tablePFmPcE: # @_Z15hash_table_ctorP10hash_tablePFmPcE
.Lfunc_begin0:
	.loc	0 16 0                          # hash_table.cpp:16:0
	.cfi_startproc
# %bb.0:
	pushq	%rbp
	.cfi_def_cfa_offset 16
	.cfi_offset %rbp, -16
	movq	%rsp, %rbp
	.cfi_def_cfa_register %rbp
	subq	$16, %rsp
	movq	%rdi, -8(%rbp)
	movq	%rsi, -16(%rbp)
.Ltmp0:
	.loc	0 18 45 prologue_end            # hash_table.cpp:18:45
	movl	$2003, %edi                     # imm = 0x7D3
	movl	$8, %esi
	callq	calloc@PLT
	movq	%rax, %rcx
	.loc	0 18 6 is_stmt 0                # hash_table.cpp:18:6
	movq	-8(%rbp), %rax
	.loc	0 18 19                         # hash_table.cpp:18:19
	movq	%rcx, 8(%rax)
	.loc	0 19 30 is_stmt 1               # hash_table.cpp:19:30
	movq	-16(%rbp), %rcx
	.loc	0 19 5 is_stmt 0                # hash_table.cpp:19:5
	movq	-8(%rbp), %rax
	.loc	0 19 28                         # hash_table.cpp:19:28
	movq	%rcx, (%rax)
	.loc	0 20 5 is_stmt 1                # hash_table.cpp:20:5
	addq	$16, %rsp
	popq	%rbp
	.cfi_def_cfa %rsp, 8
	retq
.Ltmp1:
.Lfunc_end0:
	.size	_Z15hash_table_ctorP10hash_tablePFmPcE, .Lfunc_end0-_Z15hash_table_ctorP10hash_tablePFmPcE
	.cfi_endproc
                                        # -- End function
	.globl	_Z21get_free_cell_in_listP18doubly_linked_listPci # -- Begin function _Z21get_free_cell_in_listP18doubly_linked_listPci
	.p2align	4, 0x90
	.type	_Z21get_free_cell_in_listP18doubly_linked_listPci,@function
_Z21get_free_cell_in_listP18doubly_linked_listPci: # @_Z21get_free_cell_in_listP18doubly_linked_listPci
.Lfunc_begin1:
	.loc	0 23 0                          # hash_table.cpp:23:0
	.cfi_startproc
# %bb.0:
	pushq	%rbp
	.cfi_def_cfa_offset 16
	.cfi_offset %rbp, -16
	movq	%rsp, %rbp
	.cfi_def_cfa_register %rbp
	subq	$32, %rsp
	movq	%rdi, -16(%rbp)
	movq	%rsi, -24(%rbp)
	movl	%edx, -28(%rbp)
.Ltmp2:
	.loc	0 25 14 prologue_end            # hash_table.cpp:25:14
	movl	$1, -32(%rbp)
.LBB1_1:                                # =>This Inner Loop Header: Depth=1
.Ltmp3:
	.loc	0 25 21 is_stmt 0               # hash_table.cpp:25:21
	movl	-32(%rbp), %eax
	.loc	0 25 26                         # hash_table.cpp:25:26
	movq	-16(%rbp), %rcx
	.loc	0 25 23                         # hash_table.cpp:25:23
	cmpl	12(%rcx), %eax
.Ltmp4:
	.loc	0 25 5                          # hash_table.cpp:25:5
	jg	.LBB1_6
# %bb.2:                                #   in Loop: Header=BB1_1 Depth=1
.Ltmp5:
	.loc	0 26 20 is_stmt 1               # hash_table.cpp:26:20
	movq	-24(%rbp), %rdi
	.loc	0 26 26 is_stmt 0               # hash_table.cpp:26:26
	movq	-16(%rbp), %rax
	.loc	0 26 32                         # hash_table.cpp:26:32
	movq	(%rax), %rax
	.loc	0 26 26                         # hash_table.cpp:26:26
	movslq	-32(%rbp), %rcx
	imulq	$24, %rcx, %rcx
	addq	%rcx, %rax
	.loc	0 26 40                         # hash_table.cpp:26:40
	movq	(%rax), %rsi
	.loc	0 26 13                         # hash_table.cpp:26:13
	callq	strcmp@PLT
	.loc	0 26 47                         # hash_table.cpp:26:47
	cmpl	$0, %eax
.Ltmp6:
	.loc	0 26 13                         # hash_table.cpp:26:13
	jne	.LBB1_4
# %bb.3:
.Ltmp7:
	.loc	0 27 13 is_stmt 1               # hash_table.cpp:27:13
	movl	$-1, -4(%rbp)
	jmp	.LBB1_7
.Ltmp8:
.LBB1_4:                                #   in Loop: Header=BB1_1 Depth=1
	.loc	0 29 5                          # hash_table.cpp:29:5
	jmp	.LBB1_5
.Ltmp9:
.LBB1_5:                                #   in Loop: Header=BB1_1 Depth=1
	.loc	0 25 44                         # hash_table.cpp:25:44
	movl	-32(%rbp), %eax
	addl	$1, %eax
	movl	%eax, -32(%rbp)
	.loc	0 25 5 is_stmt 0                # hash_table.cpp:25:5
	jmp	.LBB1_1
.Ltmp10:
.LBB1_6:
	.loc	0 31 12 is_stmt 1               # hash_table.cpp:31:12
	movq	-16(%rbp), %rax
	.loc	0 31 18 is_stmt 0               # hash_table.cpp:31:18
	movl	12(%rax), %eax
	.loc	0 31 5                          # hash_table.cpp:31:5
	movl	%eax, -4(%rbp)
.LBB1_7:
	.loc	0 32 1 is_stmt 1                # hash_table.cpp:32:1
	movl	-4(%rbp), %eax
	addq	$32, %rsp
	popq	%rbp
	.cfi_def_cfa %rsp, 8
	retq
.Ltmp11:
.Lfunc_end1:
	.size	_Z21get_free_cell_in_listP18doubly_linked_listPci, .Lfunc_end1-_Z21get_free_cell_in_listP18doubly_linked_listPci
	.cfi_endproc
                                        # -- End function
	.globl	_Z17hash_table_insertP10hash_tablePci # -- Begin function _Z17hash_table_insertP10hash_tablePci
	.p2align	4, 0x90
	.type	_Z17hash_table_insertP10hash_tablePci,@function
_Z17hash_table_insertP10hash_tablePci:  # @_Z17hash_table_insertP10hash_tablePci
.Lfunc_begin2:
	.loc	0 37 0                          # hash_table.cpp:37:0
	.cfi_startproc
# %bb.0:
	pushq	%rbp
	.cfi_def_cfa_offset 16
	.cfi_offset %rbp, -16
	movq	%rsp, %rbp
	.cfi_def_cfa_register %rbp
	subq	$32, %rsp
	movq	%rdi, -8(%rbp)
	movq	%rsi, -16(%rbp)
	movl	%edx, -20(%rbp)
.Ltmp12:
	.loc	0 39 28 prologue_end            # hash_table.cpp:39:28
	movq	-8(%rbp), %rax
	.loc	0 39 35 is_stmt 0               # hash_table.cpp:39:35
	movq	(%rax), %rax
	.loc	0 39 51                         # hash_table.cpp:39:51
	movq	-16(%rbp), %rdi
	.loc	0 39 28                         # hash_table.cpp:39:28
	callq	*%rax
                                        # kill: def $eax killed $eax killed $rax
	.loc	0 39 9                          # hash_table.cpp:39:9
	movl	%eax, -24(%rbp)
.Ltmp13:
	.loc	0 41 9 is_stmt 1                # hash_table.cpp:41:9
	movq	-8(%rbp), %rax
	movq	8(%rax), %rax
	movslq	-24(%rbp), %rcx
	.loc	0 41 22 is_stmt 0               # hash_table.cpp:41:22
	cmpq	$0, (%rax,%rcx,8)
.Ltmp14:
	.loc	0 41 9                          # hash_table.cpp:41:9
	jne	.LBB2_2
# %bb.1:
.Ltmp15:
	.loc	0 42 24 is_stmt 1               # hash_table.cpp:42:24
	callq	_Z9list_ctorv@PLT
	movq	%rax, %rdx
	.loc	0 42 9 is_stmt 0                # hash_table.cpp:42:9
	movq	-8(%rbp), %rax
	movq	8(%rax), %rax
	movslq	-24(%rbp), %rcx
	.loc	0 42 22                         # hash_table.cpp:42:22
	movq	%rdx, (%rax,%rcx,8)
	.loc	0 43 9 is_stmt 1                # hash_table.cpp:43:9
	movq	-8(%rbp), %rax
	.loc	0 43 33 is_stmt 0               # hash_table.cpp:43:33
	movq	16(%rax), %rcx
	addq	$1, %rcx
	movq	%rcx, 16(%rax)
.Ltmp16:
.LBB2_2:
	.loc	0 46 42 is_stmt 1               # hash_table.cpp:46:42
	movq	-8(%rbp), %rax
	movq	8(%rax), %rax
	movslq	-24(%rbp), %rcx
	movq	(%rax,%rcx,8), %rdi
	.loc	0 46 56 is_stmt 0               # hash_table.cpp:46:56
	movq	-16(%rbp), %rsi
	.loc	0 46 62                         # hash_table.cpp:46:62
	movl	-20(%rbp), %edx
	.loc	0 46 20                         # hash_table.cpp:46:20
	callq	_Z21get_free_cell_in_listP18doubly_linked_listPci
	.loc	0 46 9                          # hash_table.cpp:46:9
	movl	%eax, -28(%rbp)
.Ltmp17:
	.loc	0 47 18 is_stmt 1               # hash_table.cpp:47:18
	cmpl	$-1, -28(%rbp)
.Ltmp18:
	.loc	0 47 9 is_stmt 0                # hash_table.cpp:47:9
	je	.LBB2_4
# %bb.3:
.Ltmp19:
	.loc	0 48 27 is_stmt 1               # hash_table.cpp:48:27
	movq	-8(%rbp), %rax
	movq	8(%rax), %rax
	movslq	-24(%rbp), %rcx
	movq	(%rax,%rcx,8), %rdi
	.loc	0 48 41 is_stmt 0               # hash_table.cpp:48:41
	movl	-28(%rbp), %esi
	.loc	0 48 51                         # hash_table.cpp:48:51
	movq	-16(%rbp), %rdx
	.loc	0 48 57                         # hash_table.cpp:48:57
	movl	-20(%rbp), %ecx
	.loc	0 48 9                          # hash_table.cpp:48:9
	callq	_Z17list_insert_afterP18doubly_linked_listiPci@PLT
.Ltmp20:
.LBB2_4:
	.loc	0 51 5 is_stmt 1                # hash_table.cpp:51:5
	addq	$32, %rsp
	popq	%rbp
	.cfi_def_cfa %rsp, 8
	retq
.Ltmp21:
.Lfunc_end2:
	.size	_Z17hash_table_insertP10hash_tablePci, .Lfunc_end2-_Z17hash_table_insertP10hash_tablePci
	.cfi_endproc
                                        # -- End function
	.globl	_Z19hash_table_dump_txtP10hash_table # -- Begin function _Z19hash_table_dump_txtP10hash_table
	.p2align	4, 0x90
	.type	_Z19hash_table_dump_txtP10hash_table,@function
_Z19hash_table_dump_txtP10hash_table:   # @_Z19hash_table_dump_txtP10hash_table
.Lfunc_begin3:
	.loc	0 58 0                          # hash_table.cpp:58:0
	.cfi_startproc
# %bb.0:
	pushq	%rbp
	.cfi_def_cfa_offset 16
	.cfi_offset %rbp, -16
	movq	%rsp, %rbp
	.cfi_def_cfa_register %rbp
	subq	$32, %rsp
	movq	%rdi, -8(%rbp)
.Ltmp22:
	.loc	0 61 18 prologue_end            # hash_table.cpp:61:18
	leaq	.L.str(%rip), %rdi
	leaq	.L.str.1(%rip), %rsi
	callq	fopen@PLT
	.loc	0 61 12 is_stmt 0               # hash_table.cpp:61:12
	movq	%rax, -16(%rbp)
.Ltmp23:
	.loc	0 63 14 is_stmt 1               # hash_table.cpp:63:14
	movl	$65, -20(%rbp)
.LBB3_1:                                # =>This Inner Loop Header: Depth=1
.Ltmp24:
	.loc	0 63 24 is_stmt 0               # hash_table.cpp:63:24
	cmpl	$2003, -20(%rbp)                # imm = 0x7D3
.Ltmp25:
	.loc	0 63 5                          # hash_table.cpp:63:5
	jge	.LBB3_6
# %bb.2:                                #   in Loop: Header=BB3_1 Depth=1
.Ltmp26:
	.loc	0 64 13 is_stmt 1               # hash_table.cpp:64:13
	movq	-8(%rbp), %rax
	movq	8(%rax), %rax
	movslq	-20(%rbp), %rcx
	.loc	0 64 26 is_stmt 0               # hash_table.cpp:64:26
	cmpq	$0, (%rax,%rcx,8)
.Ltmp27:
	.loc	0 64 13                         # hash_table.cpp:64:13
	jne	.LBB3_4
# %bb.3:                                #   in Loop: Header=BB3_1 Depth=1
.Ltmp28:
	.loc	0 64 35                         # hash_table.cpp:64:35
	jmp	.LBB3_5
.Ltmp29:
.LBB3_4:                                #   in Loop: Header=BB3_1 Depth=1
	.loc	0 66 17 is_stmt 1               # hash_table.cpp:66:17
	movq	-16(%rbp), %rdi
	.loc	0 66 101 is_stmt 0              # hash_table.cpp:66:101
	movl	-20(%rbp), %edx
	.loc	0 66 9                          # hash_table.cpp:66:9
	leaq	.L.str.2(%rip), %rsi
	movb	$0, %al
	callq	fprintf@PLT
	.loc	0 67 24 is_stmt 1               # hash_table.cpp:67:24
	movl	-20(%rbp), %esi
	.loc	0 67 9 is_stmt 0                # hash_table.cpp:67:9
	leaq	.L.str.3(%rip), %rdi
	movb	$0, %al
	callq	printf@PLT
	.loc	0 69 23 is_stmt 1               # hash_table.cpp:69:23
	movq	-8(%rbp), %rax
	movq	8(%rax), %rax
	movslq	-20(%rbp), %rcx
	movq	(%rax,%rcx,8), %rdi
	.loc	0 69 37 is_stmt 0               # hash_table.cpp:69:37
	movq	-16(%rbp), %rsi
	.loc	0 69 9                          # hash_table.cpp:69:9
	callq	_Z13dump_list_txtP18doubly_linked_listP8_IO_FILE@PLT
	.loc	0 71 24 is_stmt 1               # hash_table.cpp:71:24
	movl	-20(%rbp), %esi
	.loc	0 71 9 is_stmt 0                # hash_table.cpp:71:9
	leaq	.L.str.3(%rip), %rdi
	movb	$0, %al
	callq	printf@PLT
.Ltmp30:
.LBB3_5:                                #   in Loop: Header=BB3_1 Depth=1
	.loc	0 63 44 is_stmt 1               # hash_table.cpp:63:44
	movl	-20(%rbp), %eax
	addl	$1, %eax
	movl	%eax, -20(%rbp)
	.loc	0 63 5 is_stmt 0                # hash_table.cpp:63:5
	jmp	.LBB3_1
.Ltmp31:
.LBB3_6:
	.loc	0 74 12 is_stmt 1               # hash_table.cpp:74:12
	movq	-16(%rbp), %rdi
	.loc	0 74 5 is_stmt 0                # hash_table.cpp:74:5
	callq	fclose@PLT
	.loc	0 75 5 is_stmt 1                # hash_table.cpp:75:5
	addq	$32, %rsp
	popq	%rbp
	.cfi_def_cfa %rsp, 8
	retq
.Ltmp32:
.Lfunc_end3:
	.size	_Z19hash_table_dump_txtP10hash_table, .Lfunc_end3-_Z19hash_table_dump_txtP10hash_table
	.cfi_endproc
                                        # -- End function
	.globl	_Z18read_file_to_tableP10hash_table # -- Begin function _Z18read_file_to_tableP10hash_table
	.p2align	4, 0x90
	.type	_Z18read_file_to_tableP10hash_table,@function
_Z18read_file_to_tableP10hash_table:    # @_Z18read_file_to_tableP10hash_table
.Lfunc_begin4:
	.loc	0 79 0                          # hash_table.cpp:79:0
	.cfi_startproc
# %bb.0:
	pushq	%rbp
	.cfi_def_cfa_offset 16
	.cfi_offset %rbp, -16
	movq	%rsp, %rbp
	.cfi_def_cfa_register %rbp
	subq	$64, %rsp
	movq	%rdi, -8(%rbp)
.Ltmp33:
	.loc	0 80 19 prologue_end            # hash_table.cpp:80:19
	leaq	.L.str.4(%rip), %rdi
	leaq	.L.str.5(%rip), %rsi
	callq	fopen@PLT
	.loc	0 80 12 is_stmt 0               # hash_table.cpp:80:12
	movq	%rax, -16(%rbp)
.Ltmp34:
	.loc	0 81 14 is_stmt 1               # hash_table.cpp:81:14
	cmpq	$0, -16(%rbp)
.Ltmp35:
	.loc	0 81 9 is_stmt 0                # hash_table.cpp:81:9
	jne	.LBB4_2
# %bb.1:
.Ltmp36:
	.loc	0 82 9 is_stmt 1                # hash_table.cpp:82:9
	leaq	.L.str.6(%rip), %rdi
	movb	$0, %al
	callq	printf@PLT
	.loc	0 85 9                          # hash_table.cpp:85:9
	jmp	.LBB4_6
.Ltmp37:
.LBB4_2:
	.loc	0 88 10                         # hash_table.cpp:88:10
	leaq	-48(%rbp), %rdi
	xorl	%esi, %esi
	movl	$20, %edx
	callq	memset@PLT
	.loc	0 89 9                          # hash_table.cpp:89:9
	movl	$0, -52(%rbp)
.LBB4_3:                                # =>This Inner Loop Header: Depth=1
	.loc	0 91 19                         # hash_table.cpp:91:19
	movq	-16(%rbp), %rdi
	.loc	0 91 39 is_stmt 0               # hash_table.cpp:91:39
	leaq	-48(%rbp), %rcx
	.loc	0 91 12                         # hash_table.cpp:91:12
	leaq	.L.str.7(%rip), %rsi
	leaq	-52(%rbp), %rdx
	movb	$0, %al
	callq	__isoc99_fscanf@PLT
	.loc	0 91 45                         # hash_table.cpp:91:45
	cmpl	$2, %eax
	.loc	0 91 5                          # hash_table.cpp:91:5
	jne	.LBB4_5
# %bb.4:                                #   in Loop: Header=BB4_3 Depth=1
.Ltmp38:
	.loc	0 92 27 is_stmt 1               # hash_table.cpp:92:27
	movq	-8(%rbp), %rdi
	.loc	0 92 34 is_stmt 0               # hash_table.cpp:92:34
	leaq	-48(%rbp), %rsi
	.loc	0 92 40                         # hash_table.cpp:92:40
	movl	-52(%rbp), %edx
	.loc	0 92 9                          # hash_table.cpp:92:9
	callq	_Z17hash_table_insertP10hash_tablePci
.Ltmp39:
	.loc	0 91 5 is_stmt 1                # hash_table.cpp:91:5
	jmp	.LBB4_3
.LBB4_5:
	.loc	0 94 12                         # hash_table.cpp:94:12
	movq	-16(%rbp), %rdi
	.loc	0 94 5 is_stmt 0                # hash_table.cpp:94:5
	callq	fclose@PLT
.LBB4_6:
	.loc	0 95 1 is_stmt 1                # hash_table.cpp:95:1
	addq	$64, %rsp
	popq	%rbp
	.cfi_def_cfa %rsp, 8
	retq
.Ltmp40:
.Lfunc_end4:
	.size	_Z18read_file_to_tableP10hash_table, .Lfunc_end4-_Z18read_file_to_tableP10hash_table
	.cfi_endproc
                                        # -- End function
	.globl	_Z17hash_table_searchPcP10hash_table # -- Begin function _Z17hash_table_searchPcP10hash_table
	.p2align	4, 0x90
	.type	_Z17hash_table_searchPcP10hash_table,@function
_Z17hash_table_searchPcP10hash_table:   # @_Z17hash_table_searchPcP10hash_table
.Lfunc_begin5:
	.loc	0 97 0                          # hash_table.cpp:97:0
	.cfi_startproc
# %bb.0:
	pushq	%rbp
	.cfi_def_cfa_offset 16
	.cfi_offset %rbp, -16
	movq	%rsp, %rbp
	.cfi_def_cfa_register %rbp
	subq	$48, %rsp
	movq	%rdi, -16(%rbp)
	movq	%rsi, -24(%rbp)
.Ltmp41:
	.loc	0 99 19 prologue_end            # hash_table.cpp:99:19
	movq	-24(%rbp), %rax
	.loc	0 99 26 is_stmt 0               # hash_table.cpp:99:26
	movq	(%rax), %rax
	.loc	0 99 42                         # hash_table.cpp:99:42
	movq	-16(%rbp), %rdi
	.loc	0 99 19                         # hash_table.cpp:99:19
	callq	*%rax
	.loc	0 99 12                         # hash_table.cpp:99:12
	movq	%rax, -32(%rbp)
	.loc	0 101 33 is_stmt 1              # hash_table.cpp:101:33
	movq	-24(%rbp), %rax
	.loc	0 101 40 is_stmt 0              # hash_table.cpp:101:40
	movq	8(%rax), %rax
	.loc	0 101 45                        # hash_table.cpp:101:45
	movq	-32(%rbp), %rcx
	.loc	0 101 33                        # hash_table.cpp:101:33
	movq	(%rax,%rcx,8), %rax
	.loc	0 101 26                        # hash_table.cpp:101:26
	movq	%rax, -40(%rbp)
.Ltmp42:
	.loc	0 103 14 is_stmt 1              # hash_table.cpp:103:14
	movl	$1, -44(%rbp)
.LBB5_1:                                # =>This Inner Loop Header: Depth=1
.Ltmp43:
	.loc	0 103 21 is_stmt 0              # hash_table.cpp:103:21
	movl	-44(%rbp), %eax
	.loc	0 103 26                        # hash_table.cpp:103:26
	movq	-40(%rbp), %rcx
	.loc	0 103 23                        # hash_table.cpp:103:23
	cmpl	12(%rcx), %eax
.Ltmp44:
	.loc	0 103 5                         # hash_table.cpp:103:5
	jg	.LBB5_6
# %bb.2:                                #   in Loop: Header=BB5_1 Depth=1
.Ltmp45:
	.loc	0 105 20 is_stmt 1              # hash_table.cpp:105:20
	movq	-16(%rbp), %rdi
	.loc	0 105 26 is_stmt 0              # hash_table.cpp:105:26
	movq	-40(%rbp), %rax
	.loc	0 105 32                        # hash_table.cpp:105:32
	movq	(%rax), %rax
	.loc	0 105 26                        # hash_table.cpp:105:26
	movslq	-44(%rbp), %rcx
	imulq	$24, %rcx, %rcx
	addq	%rcx, %rax
	.loc	0 105 40                        # hash_table.cpp:105:40
	movq	(%rax), %rsi
	.loc	0 105 13                        # hash_table.cpp:105:13
	callq	strcmp@PLT
	.loc	0 105 47                        # hash_table.cpp:105:47
	cmpl	$0, %eax
.Ltmp46:
	.loc	0 105 13                        # hash_table.cpp:105:13
	jne	.LBB5_4
# %bb.3:
.Ltmp47:
	.loc	0 106 20 is_stmt 1              # hash_table.cpp:106:20
	movl	-44(%rbp), %eax
	.loc	0 106 13 is_stmt 0              # hash_table.cpp:106:13
	movl	%eax, -4(%rbp)
	jmp	.LBB5_7
.Ltmp48:
.LBB5_4:                                #   in Loop: Header=BB5_1 Depth=1
	.loc	0 108 5 is_stmt 1               # hash_table.cpp:108:5
	jmp	.LBB5_5
.Ltmp49:
.LBB5_5:                                #   in Loop: Header=BB5_1 Depth=1
	.loc	0 103 44                        # hash_table.cpp:103:44
	movl	-44(%rbp), %eax
	addl	$1, %eax
	movl	%eax, -44(%rbp)
	.loc	0 103 5 is_stmt 0               # hash_table.cpp:103:5
	jmp	.LBB5_1
.Ltmp50:
.LBB5_6:
	.loc	0 110 5 is_stmt 1               # hash_table.cpp:110:5
	movl	$0, -4(%rbp)
.LBB5_7:
	.loc	0 111 1                         # hash_table.cpp:111:1
	movl	-4(%rbp), %eax
	addq	$48, %rsp
	popq	%rbp
	.cfi_def_cfa %rsp, 8
	retq
.Ltmp51:
.Lfunc_end5:
	.size	_Z17hash_table_searchPcP10hash_table, .Lfunc_end5-_Z17hash_table_searchPcP10hash_table
	.cfi_endproc
                                        # -- End function
	.globl	_Z15hash_table_dtorP10hash_table # -- Begin function _Z15hash_table_dtorP10hash_table
	.p2align	4, 0x90
	.type	_Z15hash_table_dtorP10hash_table,@function
_Z15hash_table_dtorP10hash_table:       # @_Z15hash_table_dtorP10hash_table
.Lfunc_begin6:
	.loc	0 113 0                         # hash_table.cpp:113:0
	.cfi_startproc
# %bb.0:
	pushq	%rbp
	.cfi_def_cfa_offset 16
	.cfi_offset %rbp, -16
	movq	%rsp, %rbp
	.cfi_def_cfa_register %rbp
	subq	$16, %rsp
	movq	%rdi, -8(%rbp)
.Ltmp52:
	.loc	0 115 14 prologue_end           # hash_table.cpp:115:14
	movl	$0, -12(%rbp)
.LBB6_1:                                # =>This Inner Loop Header: Depth=1
.Ltmp53:
	.loc	0 115 23 is_stmt 0              # hash_table.cpp:115:23
	cmpl	$2003, -12(%rbp)                # imm = 0x7D3
.Ltmp54:
	.loc	0 115 5                         # hash_table.cpp:115:5
	jge	.LBB6_6
# %bb.2:                                #   in Loop: Header=BB6_1 Depth=1
.Ltmp55:
	.loc	0 116 13 is_stmt 1              # hash_table.cpp:116:13
	movq	-8(%rbp), %rax
	.loc	0 116 20 is_stmt 0              # hash_table.cpp:116:20
	movq	8(%rax), %rax
	.loc	0 116 13                        # hash_table.cpp:116:13
	movslq	-12(%rbp), %rcx
	.loc	0 116 28                        # hash_table.cpp:116:28
	cmpq	$0, (%rax,%rcx,8)
.Ltmp56:
	.loc	0 116 13                        # hash_table.cpp:116:13
	je	.LBB6_4
# %bb.3:                                #   in Loop: Header=BB6_1 Depth=1
.Ltmp57:
	.loc	0 117 23 is_stmt 1              # hash_table.cpp:117:23
	movq	-8(%rbp), %rax
	.loc	0 117 30 is_stmt 0              # hash_table.cpp:117:30
	movq	8(%rax), %rax
	.loc	0 117 23                        # hash_table.cpp:117:23
	movslq	-12(%rbp), %rcx
	movq	(%rax,%rcx,8), %rdi
	.loc	0 117 13                        # hash_table.cpp:117:13
	callq	_Z9list_dtorP18doubly_linked_list@PLT
.Ltmp58:
.LBB6_4:                                #   in Loop: Header=BB6_1 Depth=1
	.loc	0 119 5 is_stmt 1               # hash_table.cpp:119:5
	jmp	.LBB6_5
.Ltmp59:
.LBB6_5:                                #   in Loop: Header=BB6_1 Depth=1
	.loc	0 115 43                        # hash_table.cpp:115:43
	movl	-12(%rbp), %eax
	addl	$1, %eax
	movl	%eax, -12(%rbp)
	.loc	0 115 5 is_stmt 0               # hash_table.cpp:115:5
	jmp	.LBB6_1
.Ltmp60:
.LBB6_6:
	.loc	0 121 10 is_stmt 1              # hash_table.cpp:121:10
	movq	-8(%rbp), %rax
	.loc	0 121 17 is_stmt 0              # hash_table.cpp:121:17
	movq	8(%rax), %rdi
	.loc	0 121 5                         # hash_table.cpp:121:5
	callq	free@PLT
	.loc	0 122 5 is_stmt 1               # hash_table.cpp:122:5
	movq	-8(%rbp), %rax
	.loc	0 122 17 is_stmt 0              # hash_table.cpp:122:17
	movq	$0, 8(%rax)
	.loc	0 123 1 is_stmt 1               # hash_table.cpp:123:1
	addq	$16, %rsp
	popq	%rbp
	.cfi_def_cfa %rsp, 8
	retq
.Ltmp61:
.Lfunc_end6:
	.size	_Z15hash_table_dtorP10hash_table, .Lfunc_end6-_Z15hash_table_dtorP10hash_table
	.cfi_endproc
                                        # -- End function
	.globl	_Z14make_csv_tableP10hash_table # -- Begin function _Z14make_csv_tableP10hash_table
	.p2align	4, 0x90
	.type	_Z14make_csv_tableP10hash_table,@function
_Z14make_csv_tableP10hash_table:        # @_Z14make_csv_tableP10hash_table
.Lfunc_begin7:
	.loc	0 126 0                         # hash_table.cpp:126:0
	.cfi_startproc
# %bb.0:
	pushq	%rbp
	.cfi_def_cfa_offset 16
	.cfi_offset %rbp, -16
	movq	%rsp, %rbp
	.cfi_def_cfa_register %rbp
	subq	$80, %rsp
	movq	%rdi, -8(%rbp)
.Ltmp62:
	.loc	0 128 10 prologue_end           # hash_table.cpp:128:10
	leaq	-32(%rbp), %rdi
	xorl	%esi, %esi
	movl	$20, %edx
	callq	memset@PLT
	.loc	0 129 14                        # hash_table.cpp:129:14
	leaq	-32(%rbp), %rdi
	.loc	0 129 36 is_stmt 0              # hash_table.cpp:129:36
	movl	_ZL12TABLE_NUMBER(%rip), %ecx
	.loc	0 129 5                         # hash_table.cpp:129:5
	movl	$9, %esi
	leaq	.L.str.8(%rip), %rdx
	movb	$0, %al
	callq	snprintf@PLT
	.loc	0 130 17 is_stmt 1              # hash_table.cpp:130:17
	movl	_ZL12TABLE_NUMBER(%rip), %eax
	addl	$1, %eax
	movl	%eax, _ZL12TABLE_NUMBER(%rip)
	.loc	0 131 12                        # hash_table.cpp:131:12
	leaq	-32(%rbp), %rdi
	.loc	0 131 5 is_stmt 0               # hash_table.cpp:131:5
	leaq	.L.str.9(%rip), %rsi
	callq	strcat@PLT
	.loc	0 132 10 is_stmt 1              # hash_table.cpp:132:10
	movq	.L__const._Z14make_csv_tableP10hash_table.folder(%rip), %rax
	movq	%rax, -64(%rbp)
	movq	.L__const._Z14make_csv_tableP10hash_table.folder+8(%rip), %rax
	movq	%rax, -56(%rbp)
	movq	.L__const._Z14make_csv_tableP10hash_table.folder+16(%rip), %rax
	movq	%rax, -48(%rbp)
	movl	.L__const._Z14make_csv_tableP10hash_table.folder+24(%rip), %eax
	movl	%eax, -40(%rbp)
	movw	.L__const._Z14make_csv_tableP10hash_table.folder+28(%rip), %ax
	movw	%ax, -36(%rbp)
	.loc	0 133 12                        # hash_table.cpp:133:12
	leaq	-64(%rbp), %rdi
	.loc	0 133 20 is_stmt 0              # hash_table.cpp:133:20
	leaq	-32(%rbp), %rsi
	.loc	0 133 5                         # hash_table.cpp:133:5
	callq	strcat@PLT
	.loc	0 136 24 is_stmt 1              # hash_table.cpp:136:24
	leaq	-64(%rbp), %rdi
	.loc	0 136 18 is_stmt 0              # hash_table.cpp:136:18
	leaq	.L.str.1(%rip), %rsi
	callq	fopen@PLT
	.loc	0 136 12                        # hash_table.cpp:136:12
	movq	%rax, -72(%rbp)
.Ltmp63:
	.loc	0 138 13 is_stmt 1              # hash_table.cpp:138:13
	cmpq	$0, -72(%rbp)
.Ltmp64:
	.loc	0 138 9 is_stmt 0               # hash_table.cpp:138:9
	jne	.LBB7_2
# %bb.1:
.Ltmp65:
	.loc	0 139 9 is_stmt 1               # hash_table.cpp:139:9
	leaq	.L.str.10(%rip), %rdi
	movb	$0, %al
	callq	printf@PLT
	.loc	0 140 9                         # hash_table.cpp:140:9
	jmp	.LBB7_9
.Ltmp66:
.LBB7_2:
	.loc	0 143 14                        # hash_table.cpp:143:14
	movl	$1, -76(%rbp)
.LBB7_3:                                # =>This Inner Loop Header: Depth=1
.Ltmp67:
	.loc	0 143 23 is_stmt 0              # hash_table.cpp:143:23
	cmpl	$2003, -76(%rbp)                # imm = 0x7D3
.Ltmp68:
	.loc	0 143 5                         # hash_table.cpp:143:5
	jge	.LBB7_8
# %bb.4:                                #   in Loop: Header=BB7_3 Depth=1
.Ltmp69:
	.loc	0 144 13 is_stmt 1              # hash_table.cpp:144:13
	movq	-8(%rbp), %rax
	.loc	0 144 20 is_stmt 0              # hash_table.cpp:144:20
	movq	8(%rax), %rax
	.loc	0 144 13                        # hash_table.cpp:144:13
	movslq	-76(%rbp), %rcx
	.loc	0 144 28                        # hash_table.cpp:144:28
	cmpq	$0, (%rax,%rcx,8)
.Ltmp70:
	.loc	0 144 13                        # hash_table.cpp:144:13
	jne	.LBB7_6
# %bb.5:                                #   in Loop: Header=BB7_3 Depth=1
.Ltmp71:
	.loc	0 145 21 is_stmt 1              # hash_table.cpp:145:21
	movq	-72(%rbp), %rdi
	.loc	0 145 36 is_stmt 0              # hash_table.cpp:145:36
	movl	-76(%rbp), %edx
	.loc	0 145 13                        # hash_table.cpp:145:13
	leaq	.L.str.11(%rip), %rsi
	movb	$0, %al
	callq	fprintf@PLT
	.loc	0 146 13 is_stmt 1              # hash_table.cpp:146:13
	jmp	.LBB7_7
.Ltmp72:
.LBB7_6:                                #   in Loop: Header=BB7_3 Depth=1
	.loc	0 148 17                        # hash_table.cpp:148:17
	movq	-72(%rbp), %rdi
	.loc	0 148 33 is_stmt 0              # hash_table.cpp:148:33
	movl	-76(%rbp), %edx
	.loc	0 148 36                        # hash_table.cpp:148:36
	movq	-8(%rbp), %rax
	.loc	0 148 43                        # hash_table.cpp:148:43
	movq	8(%rax), %rax
	.loc	0 148 36                        # hash_table.cpp:148:36
	movslq	-76(%rbp), %rcx
	movq	(%rax,%rcx,8), %rax
	.loc	0 148 52                        # hash_table.cpp:148:52
	movl	12(%rax), %ecx
	.loc	0 148 9                         # hash_table.cpp:148:9
	leaq	.L.str.12(%rip), %rsi
	movb	$0, %al
	callq	fprintf@PLT
.Ltmp73:
.LBB7_7:                                #   in Loop: Header=BB7_3 Depth=1
	.loc	0 143 43 is_stmt 1              # hash_table.cpp:143:43
	movl	-76(%rbp), %eax
	addl	$1, %eax
	movl	%eax, -76(%rbp)
	.loc	0 143 5 is_stmt 0               # hash_table.cpp:143:5
	jmp	.LBB7_3
.Ltmp74:
.LBB7_8:
	.loc	0 150 12 is_stmt 1              # hash_table.cpp:150:12
	movq	-72(%rbp), %rdi
	.loc	0 150 5 is_stmt 0               # hash_table.cpp:150:5
	callq	fclose@PLT
.LBB7_9:
	.loc	0 151 1 is_stmt 1               # hash_table.cpp:151:1
	addq	$80, %rsp
	popq	%rbp
	.cfi_def_cfa %rsp, 8
	retq
.Ltmp75:
.Lfunc_end7:
	.size	_Z14make_csv_tableP10hash_table, .Lfunc_end7-_Z14make_csv_tableP10hash_table
	.cfi_endproc
                                        # -- End function
	.globl	main                            # -- Begin function main
	.p2align	4, 0x90
	.type	main,@function
main:                                   # @main
.Lfunc_begin8:
	.loc	0 153 0                         # hash_table.cpp:153:0
	.cfi_startproc
# %bb.0:
	pushq	%rbp
	.cfi_def_cfa_offset 16
	.cfi_offset %rbp, -16
	movq	%rsp, %rbp
	.cfi_def_cfa_register %rbp
	subq	$80, %rsp
	movl	$0, -4(%rbp)
.Ltmp76:
	.loc	0 155 16 prologue_end           # hash_table.cpp:155:16
	leaq	-32(%rbp), %rdi
	xorl	%esi, %esi
	movl	$24, %edx
	callq	memset@PLT
	.loc	0 156 5                         # hash_table.cpp:156:5
	leaq	-32(%rbp), %rdi
	movq	_Z14CRC32_modifiedPc@GOTPCREL(%rip), %rsi
	callq	_Z15hash_table_ctorP10hash_tablePFmPcE
	.loc	0 158 5                         # hash_table.cpp:158:5
	leaq	-32(%rbp), %rdi
	callq	_Z18read_file_to_tableP10hash_table
	.loc	0 160 24                        # hash_table.cpp:160:24
	movq	$0, -40(%rbp)
	.loc	0 161 9                         # hash_table.cpp:161:9
	movl	$100000, -44(%rbp)              # imm = 0x186A0
.Ltmp77:
	.loc	0 164 14                        # hash_table.cpp:164:14
	movl	$0, -48(%rbp)
.LBB8_1:                                # =>This Loop Header: Depth=1
                                        #     Child Loop BB8_3 Depth 2
                                        #       Child Loop BB8_7 Depth 3
.Ltmp78:
	.loc	0 164 21 is_stmt 0              # hash_table.cpp:164:21
	movl	-48(%rbp), %eax
	.loc	0 164 23                        # hash_table.cpp:164:23
	cmpl	-44(%rbp), %eax
.Ltmp79:
	.loc	0 164 5                         # hash_table.cpp:164:5
	jge	.LBB8_14
# %bb.2:                                #   in Loop: Header=BB8_1 Depth=1
.Ltmp80:
	.loc	0 166 36 is_stmt 1              # hash_table.cpp:166:36
	rdtsc
	shlq	$32, %rdx
	orq	%rdx, %rax
	.loc	0 166 28 is_stmt 0              # hash_table.cpp:166:28
	movq	%rax, -56(%rbp)
.Ltmp81:
	.loc	0 168 18 is_stmt 1              # hash_table.cpp:168:18
	movl	$0, -60(%rbp)
.LBB8_3:                                #   Parent Loop BB8_1 Depth=1
                                        # =>  This Loop Header: Depth=2
                                        #       Child Loop BB8_7 Depth 3
.Ltmp82:
	.loc	0 168 27 is_stmt 0              # hash_table.cpp:168:27
	cmpl	$2003, -60(%rbp)                # imm = 0x7D3
.Ltmp83:
	.loc	0 168 9                         # hash_table.cpp:168:9
	jge	.LBB8_12
# %bb.4:                                #   in Loop: Header=BB8_3 Depth=2
.Ltmp84:
	.loc	0 170 23 is_stmt 1              # hash_table.cpp:170:23
	movq	-24(%rbp), %rax
	.loc	0 170 17 is_stmt 0              # hash_table.cpp:170:17
	movslq	-60(%rbp), %rcx
	.loc	0 170 31                        # hash_table.cpp:170:31
	cmpq	$0, (%rax,%rcx,8)
.Ltmp85:
	.loc	0 170 17                        # hash_table.cpp:170:17
	jne	.LBB8_6
# %bb.5:                                #   in Loop: Header=BB8_3 Depth=2
.Ltmp86:
	.loc	0 170 40                        # hash_table.cpp:170:40
	jmp	.LBB8_11
.Ltmp87:
.LBB8_6:                                #   in Loop: Header=BB8_3 Depth=2
	.loc	0 171 22 is_stmt 1              # hash_table.cpp:171:22
	movl	$1, -64(%rbp)
.LBB8_7:                                #   Parent Loop BB8_1 Depth=1
                                        #     Parent Loop BB8_3 Depth=2
                                        # =>    This Inner Loop Header: Depth=3
.Ltmp88:
	.loc	0 171 29 is_stmt 0              # hash_table.cpp:171:29
	movl	-64(%rbp), %eax
	.loc	0 171 39                        # hash_table.cpp:171:39
	movq	-24(%rbp), %rcx
	.loc	0 171 33                        # hash_table.cpp:171:33
	movslq	-60(%rbp), %rdx
	movq	(%rcx,%rdx,8), %rcx
	.loc	0 171 31                        # hash_table.cpp:171:31
	cmpl	12(%rcx), %eax
.Ltmp89:
	.loc	0 171 13                        # hash_table.cpp:171:13
	jge	.LBB8_10
# %bb.8:                                #   in Loop: Header=BB8_7 Depth=3
.Ltmp90:
	.loc	0 172 41 is_stmt 1              # hash_table.cpp:172:41
	movq	-24(%rbp), %rax
	.loc	0 172 35 is_stmt 0              # hash_table.cpp:172:35
	movslq	-60(%rbp), %rcx
	movq	(%rax,%rcx,8), %rax
	.loc	0 172 50                        # hash_table.cpp:172:50
	movq	(%rax), %rax
	.loc	0 172 35                        # hash_table.cpp:172:35
	movslq	-64(%rbp), %rcx
	imulq	$24, %rcx, %rcx
	addq	%rcx, %rax
	.loc	0 172 58                        # hash_table.cpp:172:58
	movq	(%rax), %rdi
	.loc	0 172 17                        # hash_table.cpp:172:17
	leaq	-32(%rbp), %rsi
	callq	_Z17hash_table_searchPcP10hash_table
.Ltmp91:
# %bb.9:                                #   in Loop: Header=BB8_7 Depth=3
	.loc	0 171 60 is_stmt 1              # hash_table.cpp:171:60
	movl	-64(%rbp), %eax
	addl	$1, %eax
	movl	%eax, -64(%rbp)
	.loc	0 171 13 is_stmt 0              # hash_table.cpp:171:13
	jmp	.LBB8_7
.Ltmp92:
.LBB8_10:                               #   in Loop: Header=BB8_3 Depth=2
	.loc	0 174 9 is_stmt 1               # hash_table.cpp:174:9
	jmp	.LBB8_11
.Ltmp93:
.LBB8_11:                               #   in Loop: Header=BB8_3 Depth=2
	.loc	0 168 47                        # hash_table.cpp:168:47
	movl	-60(%rbp), %eax
	addl	$1, %eax
	movl	%eax, -60(%rbp)
	.loc	0 168 9 is_stmt 0               # hash_table.cpp:168:9
	jmp	.LBB8_3
.Ltmp94:
.LBB8_12:                               #   in Loop: Header=BB8_1 Depth=1
	.loc	0 176 34 is_stmt 1              # hash_table.cpp:176:34
	rdtsc
	shlq	$32, %rdx
	orq	%rdx, %rax
	.loc	0 176 28 is_stmt 0              # hash_table.cpp:176:28
	movq	%rax, -72(%rbp)
	.loc	0 178 17 is_stmt 1              # hash_table.cpp:178:17
	movq	-72(%rbp), %rax
	.loc	0 178 20 is_stmt 0              # hash_table.cpp:178:20
	subq	-56(%rbp), %rax
	.loc	0 178 13                        # hash_table.cpp:178:13
	addq	-40(%rbp), %rax
	movq	%rax, -40(%rbp)
.Ltmp95:
# %bb.13:                               #   in Loop: Header=BB8_1 Depth=1
	.loc	0 164 38 is_stmt 1              # hash_table.cpp:164:38
	movl	-48(%rbp), %eax
	addl	$1, %eax
	movl	%eax, -48(%rbp)
	.loc	0 164 5 is_stmt 0               # hash_table.cpp:164:5
	jmp	.LBB8_1
.Ltmp96:
.LBB8_14:
	.loc	0 181 5 is_stmt 1               # hash_table.cpp:181:5
	leaq	-32(%rbp), %rdi
	callq	_Z14make_csv_tableP10hash_table
	.loc	0 182 5                         # hash_table.cpp:182:5
	leaq	-32(%rbp), %rdi
	callq	_Z15hash_table_dtorP10hash_table
	.loc	0 183 27                        # hash_table.cpp:183:27
	movq	-40(%rbp), %rax
	.loc	0 183 31 is_stmt 0              # hash_table.cpp:183:31
	movslq	-44(%rbp), %rcx
	.loc	0 183 30                        # hash_table.cpp:183:30
	xorl	%edx, %edx
                                        # kill: def $rdx killed $edx
	divq	%rcx
	movq	%rax, %rsi
	.loc	0 183 5                         # hash_table.cpp:183:5
	leaq	.L.str.13(%rip), %rdi
	movb	$0, %al
	callq	printf@PLT
	.loc	0 184 1 is_stmt 1               # hash_table.cpp:184:1
	movl	-4(%rbp), %eax
	addq	$80, %rsp
	popq	%rbp
	.cfi_def_cfa %rsp, 8
	retq
.Ltmp97:
.Lfunc_end8:
	.size	main, .Lfunc_end8-main
	.cfi_endproc
                                        # -- End function
	.type	.L.str,@object                  # @.str
	.section	.rodata.str1.1,"aMS",@progbits,1
.L.str:
	.asciz	"log_file.txt"
	.size	.L.str, 13

	.type	.L.str.1,@object                # @.str.1
.L.str.1:
	.asciz	"w"
	.size	.L.str.1, 2

	.type	.L.str.2,@object                # @.str.2
.L.str.2:
	.asciz	"\n\n     ========================= %d_hash_array ======================\n\n"
	.size	.L.str.2, 72

	.type	.L.str.3,@object                # @.str.3
.L.str.3:
	.asciz	"%d\n"
	.size	.L.str.3, 4

	.type	.L.str.4,@object                # @.str.4
.L.str.4:
	.asciz	"data_storage.txt"
	.size	.L.str.4, 17

	.type	.L.str.5,@object                # @.str.5
.L.str.5:
	.asciz	"r"
	.size	.L.str.5, 2

	.type	.L.str.6,@object                # @.str.6
.L.str.6:
	.asciz	"file not found: \"useful-information-for-debugging-this.txt\",also why did fopen fail? Look in errno! (perror)\n"
	.size	.L.str.6, 110

	.type	.L.str.7,@object                # @.str.7
.L.str.7:
	.asciz	"%d %s"
	.size	.L.str.7, 6

	.type	.L.str.8,@object                # @.str.8
.L.str.8:
	.asciz	"%d"
	.size	.L.str.8, 3

	.type	_ZL12TABLE_NUMBER,@object       # @_ZL12TABLE_NUMBER
	.data
	.p2align	2
_ZL12TABLE_NUMBER:
	.long	1                               # 0x1
	.size	_ZL12TABLE_NUMBER, 4

	.type	.L.str.9,@object                # @.str.9
	.section	.rodata.str1.1,"aMS",@progbits,1
.L.str.9:
	.asciz	"table.csv"
	.size	.L.str.9, 10

	.type	.L__const._Z14make_csv_tableP10hash_table.folder,@object # @__const._Z14make_csv_tableP10hash_table.folder
	.section	.rodata,"a",@progbits
	.p2align	4
.L__const._Z14make_csv_tableP10hash_table.folder:
	.byte	116                             # 0x74
	.byte	97                              # 0x61
	.byte	98                              # 0x62
	.byte	108                             # 0x6c
	.byte	101                             # 0x65
	.byte	115                             # 0x73
	.byte	47                              # 0x2f
	.zero	23
	.size	.L__const._Z14make_csv_tableP10hash_table.folder, 30

	.type	.L.str.10,@object               # @.str.10
	.section	.rodata.str1.1,"aMS",@progbits,1
.L.str.10:
	.asciz	"NULL no \"tables\" folder found in repository\n"
	.size	.L.str.10, 45

	.type	.L.str.11,@object               # @.str.11
.L.str.11:
	.asciz	"%d;0\n"
	.size	.L.str.11, 6

	.type	.L.str.12,@object               # @.str.12
.L.str.12:
	.asciz	"%d;%d\n"
	.size	.L.str.12, 7

	.type	.L.str.13,@object               # @.str.13
.L.str.13:
	.asciz	"\n\n%llu\n\n"
	.size	.L.str.13, 9

	.section	".note.GNU-stack","",@progbits
	.addrsig
	.addrsig_sym _Z15hash_table_ctorP10hash_tablePFmPcE
	.addrsig_sym calloc
	.addrsig_sym _Z21get_free_cell_in_listP18doubly_linked_listPci
	.addrsig_sym strcmp
	.addrsig_sym _Z17hash_table_insertP10hash_tablePci
	.addrsig_sym _Z9list_ctorv
	.addrsig_sym _Z17list_insert_afterP18doubly_linked_listiPci
	.addrsig_sym fopen
	.addrsig_sym fprintf
	.addrsig_sym printf
	.addrsig_sym _Z13dump_list_txtP18doubly_linked_listP8_IO_FILE
	.addrsig_sym fclose
	.addrsig_sym _Z18read_file_to_tableP10hash_table
	.addrsig_sym __isoc99_fscanf
	.addrsig_sym _Z17hash_table_searchPcP10hash_table
	.addrsig_sym _Z15hash_table_dtorP10hash_table
	.addrsig_sym _Z9list_dtorP18doubly_linked_list
	.addrsig_sym free
	.addrsig_sym _Z14make_csv_tableP10hash_table
	.addrsig_sym snprintf
	.addrsig_sym strcat
	.addrsig_sym _Z14CRC32_modifiedPc
	.addrsig_sym _ZL12TABLE_NUMBER